target datalayout = "e-m:e-p270:32:32-p271:32:32-p272:64:64-i64:64-i128:128-f80:128-n8:16:32:64-S128"
target triple = "x86_64-pc-linux-gnu"

%struct.SN_env = type { ptr, i32, i32, i32, i32, i32, ptr, ptr }

; Function Attrs: nounwind uwtable
define internal i32 @r_noun(ptr noundef %0) #0 {
  %2 = alloca i32, align 4
  %3 = alloca ptr, align 8
  %4 = alloca i32, align 4
  %5 = alloca i32, align 4
  store ptr %0, ptr %3, align 8
  %6 = load ptr, ptr %3, align 8
  %7 = getelementptr inbounds nuw %struct.SN_env, ptr %6, i32 0, i32 1
  %8 = load i32, ptr %7, align 8
  %9 = load ptr, ptr %3, align 8
  %10 = getelementptr inbounds nuw %struct.SN_env, ptr %9, i32 0, i32 5
  store i32 %8, ptr %10, align 8
  %11 = load ptr, ptr %3, align 8
  %12 = getelementptr inbounds nuw %struct.SN_env, ptr %11, i32 0, i32 1
  %13 = load i32, ptr %12, align 8
  %14 = load ptr, ptr %3, align 8
  %15 = getelementptr inbounds nuw %struct.SN_env, ptr %14, i32 0, i32 3
  %16 = load i32, ptr %15, align 8
  %17 = icmp sle i32 %13, %16
  br i1 %17, label %48, label %18

18:                                               ; preds = %1
  %19 = load ptr, ptr %3, align 8
  %20 = getelementptr inbounds nuw %struct.SN_env, ptr %19, i32 0, i32 0
  %21 = load ptr, ptr %20, align 8
  %22 = load ptr, ptr %3, align 8
  %23 = getelementptr inbounds nuw %struct.SN_env, ptr %22, i32 0, i32 1
  %24 = load i32, ptr %23, align 8
  %25 = sub i32 %24, 1
  %26 = sext i32 %25 to i64
  %27 = getelementptr inbounds i8, ptr %21, i64 %26
  %28 = load i8, ptr %27, align 1
  %29 = zext i8 %28 to i32
  %30 = ashr i32 %29, 5
  %31 = icmp ne i32 %30, 6
  br i1 %31, label %48, label %32

32:                                               ; preds = %18
  %33 = load ptr, ptr %3, align 8
  %34 = getelementptr inbounds nuw %struct.SN_env, ptr %33, i32 0, i32 0
  %35 = load ptr, ptr %34, align 8
  %36 = load ptr, ptr %3, align 8
  %37 = getelementptr inbounds nuw %struct.SN_env, ptr %36, i32 0, i32 1
  %38 = load i32, ptr %37, align 8
  %39 = sub i32 %38, 1
  %40 = sext i32 %39 to i64
  %41 = getelementptr inbounds i8, ptr %35, i64 %40
  %42 = load i8, ptr %41, align 1
  %43 = zext i8 %42 to i32
  %44 = and i32 %43, 31
  %45 = ashr i32 60991267, %44
  %46 = and i32 %45, 1
  %47 = icmp ne i32 %46, 0
  br i1 %47, label %49, label %48

48:                                               ; preds = %32, %18, %1
  store i32 0, ptr %2, align 4
  br label %70

49:                                               ; preds = %32
  %50 = load ptr, ptr %3, align 8
  %51 = call i32 @find_among_b(ptr noundef %50, ptr noundef @a_5, i32 noundef 36)
  %52 = icmp ne i32 %51, 0
  br i1 %52, label %54, label %53

53:                                               ; preds = %49
  store i32 0, ptr %2, align 4
  br label %70

54:                                               ; preds = %49
  %55 = load ptr, ptr %3, align 8
  %56 = getelementptr inbounds nuw %struct.SN_env, ptr %55, i32 0, i32 1
  %57 = load i32, ptr %56, align 8
  %58 = load ptr, ptr %3, align 8
  %59 = getelementptr inbounds nuw %struct.SN_env, ptr %58, i32 0, i32 4
  store i32 %57, ptr %59, align 4
  call void @llvm.lifetime.start.p0(i64 4, ptr %4) #3
  %60 = load ptr, ptr %3, align 8
  %61 = call i32 @slice_del(ptr noundef %60)
  store i32 %61, ptr %4, align 4
  %62 = load i32, ptr %4, align 4
  %63 = icmp slt i32 %62, 0
  br i1 %63, label %64, label %66

64:                                               ; preds = %54
  %65 = load i32, ptr %4, align 4
  store i32 %65, ptr %2, align 4
  store i32 1, ptr %5, align 4
  br label %67

66:                                               ; preds = %54
  store i32 0, ptr %5, align 4
  br label %67

67:                                               ; preds = %66, %64
  call void @llvm.lifetime.end.p0(i64 4, ptr %4) #3
  %68 = load i32, ptr %5, align 4
  switch i32 %68, label %72 [
    i32 0, label %69
    i32 1, label %70
  ]

69:                                               ; preds = %67
  store i32 1, ptr %2, align 4
  br label %70

70:                                               ; preds = %69, %67, %53, %48
  %71 = load i32, ptr %2, align 4
  ret i32 %71

72:                                               ; preds = %67
  unreachable
}