; Function Attrs: nounwind uwtable
define internal fastcc i32 @r_noun(ptr noundef initializes((24, 28)) %0) unnamed_addr #0 {
  %2 = getelementptr inbounds nuw i8, ptr %0, i64 8
  %3 = load i32, ptr %2, align 8
  %4 = getelementptr inbounds nuw i8, ptr %0, i64 24
  store i32 %3, ptr %4, align 8
  %5 = getelementptr inbounds nuw i8, ptr %0, i64 16
  %6 = load i32, ptr %5, align 8
  %.not = icmp sgt i32 %3, %6
  br i1 %.not, label %7, label %25

7:                                                ; preds = %1
  %8 = load ptr, ptr %0, align 8
  %9 = sext i32 %3 to i64
  %10 = getelementptr i8, ptr %8, i64 %9
  %11 = getelementptr i8, ptr %10, i64 -1
  %12 = load i8, ptr %11, align 1
  %13 = zext i8 %12 to i32
  %.mask = and i32 %13, 224
  %.not17 = icmp eq i32 %.mask, 192
  br i1 %.not17, label %14, label %25

14:                                               ; preds = %7
  %15 = and i32 %13, 31
  %16 = shl nuw i32 1, %15
  %17 = and i32 %16, 60991267
  %.not18 = icmp eq i32 %17, 0
  br i1 %.not18, label %25, label %18

18:                                               ; preds = %14
  %19 = tail call i32 @find_among_b(ptr noundef nonnull %0, ptr noundef nonnull @a_5, i32 noundef 36) #3
  %.not19 = icmp eq i32 %19, 0
  br i1 %.not19, label %25, label %20

20:                                               ; preds = %18
  %21 = load i32, ptr %2, align 8
  %22 = getelementptr inbounds nuw i8, ptr %0, i64 20
  store i32 %21, ptr %22, align 4
  %23 = tail call i32 @slice_del(ptr noundef nonnull %0) #3
  %24 = icmp sgt i32 %23, -1
  %spec.select = select i1 %24, i32 1, i32 %23
  br label %25

25:                                               ; preds = %20, %18, %1, %7, %14
  %.015 = phi i32 [ 0, %14 ], [ 0, %7 ], [ 0, %1 ], [ 0, %18 ], [ %spec.select, %20 ]
  ret i32 %.015
}